; Function Attrs: nounwind uwtable
define hidden ptr @SDL_FindPhysicalCameraByCallback(ptr noundef %0, ptr noundef %1) local_unnamed_addr #1 {
  %3 = alloca %struct.FindOnePhysicalCameraByCallbackData, align 8
  %4 = load ptr, ptr @camera_driver, align 8
  %.not = icmp eq ptr %4, null
  br i1 %.not, label %5, label %7

5:                                                ; preds = %2
  %6 = tail call zeroext i1 (ptr, ...) @SDL_SetError_REAL(ptr noundef nonnull @.str.3) #11
  br label %19

7:                                                ; preds = %2
  call void @llvm.lifetime.start.p0(i64 24, ptr nonnull %3) #11
  store ptr %0, ptr %3, align 8
  %8 = getelementptr inbounds nuw i8, ptr %3, i64 8
  store ptr %1, ptr %8, align 8
  %9 = getelementptr inbounds nuw i8, ptr %3, i64 16
  store ptr null, ptr %9, align 8
  %10 = load ptr, ptr getelementptr inbounds nuw (i8, ptr @camera_driver, i64 88), align 8
  tail call void @SDL_LockRWLockForReading_REAL(ptr noundef %10) #11
  %11 = load ptr, ptr getelementptr inbounds nuw (i8, ptr @camera_driver, i64 96), align 8
  %12 = call zeroext i1 @SDL_IterateHashTable(ptr noundef %11, ptr noundef nonnull @FindOnePhysicalCameraByCallback, ptr noundef nonnull %3) #11
  %13 = load ptr, ptr getelementptr inbounds nuw (i8, ptr @camera_driver, i64 88), align 8
  call void @SDL_UnlockRWLock_REAL(ptr noundef %13) #11
  %14 = load ptr, ptr %9, align 8
  %.not3 = icmp eq ptr %14, null
  br i1 %.not3, label %15, label %17

15:                                               ; preds = %7
  %16 = call zeroext i1 (ptr, ...) @SDL_SetError_REAL(ptr noundef nonnull @.str.4) #11
  %.pre = load ptr, ptr %9, align 8
  br label %17

17:                                               ; preds = %15, %7
  %18 = phi ptr [ %.pre, %15 ], [ %14, %7 ]
  call void @llvm.lifetime.end.p0(i64 24, ptr nonnull %3) #11
  br label %19

19:                                               ; preds = %17, %5
  %.0 = phi ptr [ %18, %17 ], [ null, %5 ]
  ret ptr %.0
}